target datalayout = "e-m:e-p270:32:32-p271:32:32-p272:64:64-i64:64-i128:128-f80:128-n8:16:32:64-S128"
target triple = "x86_64-pc-linux-gnu"

%"class.BCEscapeAnalyzer::ArgumentMap" = type { i32 }
%class.BCEscapeAnalyzer = type <{ ptr, i8, [7 x i8], ptr, ptr, i32, [4 x i8], %class.VectorSet, %class.VectorSet, %class.VectorSet, ptr, i8, i8, i8, i8, [4 x i8], %class.GrowableArray, ptr, ptr, i32, [4 x i8] }>
%class.VectorSet = type { i32, ptr, i32, ptr }
%class.GrowableArray = type { %class.GrowableArrayWithAllocator, %class.GrowableArrayMetadata }
%class.GrowableArrayWithAllocator = type { %class.GrowableArrayView }
%class.GrowableArrayView = type { %class.GrowableArrayBase, ptr }
%class.GrowableArrayBase = type { i32, i32 }
%class.GrowableArrayMetadata = type { i64 }

; Function Attrs: mustprogress nounwind uwtable
define linkonce_odr hidden noundef i32 @_ZNK16BCEscapeAnalyzer11ArgumentMap10int_to_bitEj(ptr noundef nonnull align 4 dereferenceable(4) %0, i32 noundef %1) #1 comdat align 2 {
  %3 = alloca ptr, align 8
  %4 = alloca i32, align 4
  store ptr %0, ptr %3, align 8
  store i32 %1, ptr %4, align 4
  %5 = load i32, ptr %4, align 4
  %6 = icmp ugt i32 %5, 29
  br i1 %6, label %7, label %8

7:                                                ; preds = %2
  store i32 29, ptr %4, align 4
  br label %8

8:                                                ; preds = %7, %2
  %9 = load i32, ptr %4, align 4
  %10 = add i32 %9, 2
  %11 = shl i32 1, %10
  ret i32 %11
}

; Function Attrs: mustprogress nounwind uwtable
define linkonce_odr hidden noundef zeroext i1 @_ZNK9VectorSet4testEj(ptr noundef nonnull align 8 dereferenceable(32) %0, i32 noundef %1) #1 comdat align 2 {
  %3 = alloca i1, align 1
  %4 = alloca ptr, align 8
  %5 = alloca i32, align 4
  %6 = alloca i32, align 4
  %7 = alloca i32, align 4
  store ptr %0, ptr %4, align 8
  store i32 %1, ptr %5, align 4
  %8 = load ptr, ptr %4, align 8
  %9 = load i32, ptr %5, align 4
  %10 = lshr i32 %9, 5
  store i32 %10, ptr %6, align 4
  %11 = load i32, ptr %6, align 4
  %12 = getelementptr inbounds %class.VectorSet, ptr %8, i32 0, i32 0
  %13 = load i32, ptr %12, align 8
  %14 = icmp uge i32 %11, %13
  br i1 %14, label %15, label %16

15:                                               ; preds = %2
  store i1 false, ptr %3, align 1
  br label %29

16:                                               ; preds = %2
  %17 = load i32, ptr %5, align 4
  %18 = and i32 %17, 31
  %19 = shl i32 1, %18
  store i32 %19, ptr %7, align 4
  %20 = getelementptr inbounds %class.VectorSet, ptr %8, i32 0, i32 1
  %21 = load ptr, ptr %20, align 8
  %22 = load i32, ptr %6, align 4
  %23 = zext i32 %22 to i64
  %24 = getelementptr inbounds i32, ptr %21, i64 %23
  %25 = load i32, ptr %24, align 4
  %26 = load i32, ptr %7, align 4
  %27 = and i32 %25, %26
  %28 = icmp ne i32 %27, 0
  store i1 %28, ptr %3, align 1
  br label %29

29:                                               ; preds = %16, %15
  %30 = load i1, ptr %3, align 1
  ret i1 %30
}

; Function Attrs: mustprogress nounwind uwtable
define linkonce_odr hidden noundef zeroext i1 @_ZNK16BCEscapeAnalyzer11ArgumentMap8containsEj(ptr noundef nonnull align 4 dereferenceable(4) %0, i32 noundef %1) #1 comdat align 2 {
  %3 = alloca ptr, align 8
  %4 = alloca i32, align 4
  store ptr %0, ptr %3, align 8
  store i32 %1, ptr %4, align 4
  %5 = load ptr, ptr %3, align 8
  %6 = getelementptr inbounds %"class.BCEscapeAnalyzer::ArgumentMap", ptr %5, i32 0, i32 0
  %7 = load i32, ptr %6, align 4
  %8 = load i32, ptr %4, align 4
  %9 = call noundef i32 @_ZNK16BCEscapeAnalyzer11ArgumentMap10int_to_bitEj(ptr noundef nonnull align 4 dereferenceable(4) %5, i32 noundef %8)
  %10 = and i32 %7, %9
  %11 = icmp ne i32 %10, 0
  ret i1 %11
}

; Function Attrs: mustprogress nounwind uwtable
define hidden noundef zeroext i1 @_ZN16BCEscapeAnalyzer12is_arg_stackENS_11ArgumentMapE(ptr noundef nonnull align 8 dereferenceable(196) %0, i32 %1) #1 align 2 {
  %3 = alloca i1, align 1
  %4 = alloca %"class.BCEscapeAnalyzer::ArgumentMap", align 4
  %5 = alloca ptr, align 8
  %6 = alloca i32, align 4
  %7 = getelementptr inbounds %"class.BCEscapeAnalyzer::ArgumentMap", ptr %4, i32 0, i32 0
  store i32 %1, ptr %7, align 4
  store ptr %0, ptr %5, align 8
  %8 = load ptr, ptr %5, align 8
  %9 = getelementptr inbounds %class.BCEscapeAnalyzer, ptr %8, i32 0, i32 1
  %10 = load i8, ptr %9, align 8
  %11 = trunc i8 %10 to i1
  br i1 %11, label %12, label %13

12:                                               ; preds = %2
  store i1 true, ptr %3, align 1
  br label %32

13:                                               ; preds = %2
  store i32 0, ptr %6, align 4
  br label %14

14:                                               ; preds = %28, %13
  %15 = load i32, ptr %6, align 4
  %16 = getelementptr inbounds %class.BCEscapeAnalyzer, ptr %8, i32 0, i32 5
  %17 = load i32, ptr %16, align 8
  %18 = icmp slt i32 %15, %17
  br i1 %18, label %19, label %31

19:                                               ; preds = %14
  %20 = load i32, ptr %6, align 4
  %21 = call noundef zeroext i1 @_ZNK16BCEscapeAnalyzer11ArgumentMap8containsEj(ptr noundef nonnull align 4 dereferenceable(4) %4, i32 noundef %20)
  br i1 %21, label %22, label %27

22:                                               ; preds = %19
  %23 = getelementptr inbounds %class.BCEscapeAnalyzer, ptr %8, i32 0, i32 8
  %24 = load i32, ptr %6, align 4
  %25 = call noundef zeroext i1 @_ZNK9VectorSet4testEj(ptr noundef nonnull align 8 dereferenceable(32) %23, i32 noundef %24)
  br i1 %25, label %26, label %27

26:                                               ; preds = %22
  store i1 true, ptr %3, align 1
  br label %32

27:                                               ; preds = %22, %19
  br label %28

28:                                               ; preds = %27
  %29 = load i32, ptr %6, align 4
  %30 = add nsw i32 %29, 1
  store i32 %30, ptr %6, align 4
  br label %14, !llvm.loop !9

31:                                               ; preds = %14
  store i1 false, ptr %3, align 1
  br label %32

32:                                               ; preds = %31, %26, %12
  %33 = load i1, ptr %3, align 1
  ret i1 %33
}