; Function Attrs: mustprogress nofree norecurse nosync nounwind willreturn memory(read, inaccessiblemem: none) uwtable
define hidden noundef zeroext i1 @_ZN16BCEscapeAnalyzer12is_arg_stackENS_11ArgumentMapE(ptr nocapture noundef nonnull readonly align 8 dereferenceable(196) %0, i32 %1) local_unnamed_addr #2 align 2 {
  %3 = getelementptr inbounds i8, ptr %0, i64 8
  %4 = load i8, ptr %3, align 8
  %5 = trunc i8 %4 to i1
  br i1 %5, label %.loopexit, label %.preheader

.preheader:                                       ; preds = %2
  %6 = getelementptr inbounds i8, ptr %0, i64 32
  %7 = load i32, ptr %6, align 8
  %8 = icmp sgt i32 %7, 0
  br i1 %8, label %.lr.ph, label %.loopexit

.lr.ph:                                           ; preds = %.preheader
  %9 = getelementptr inbounds i8, ptr %0, i64 72
  %10 = load i32, ptr %9, align 8
  %11 = getelementptr inbounds i8, ptr %0, i64 80
  %12 = load ptr, ptr %11, align 8
  br label %13

13:                                               ; preds = %.lr.ph, %_ZNK9VectorSet4testEj.exit.thread
  %.08 = phi i32 [ 0, %.lr.ph ], [ %24, %_ZNK9VectorSet4testEj.exit.thread ]
  %spec.store.select.i.i = tail call i32 @llvm.umin.i32(i32 %.08, i32 29)
  %14 = shl nuw i32 4, %spec.store.select.i.i
  %15 = and i32 %14, %1
  %.not = icmp eq i32 %15, 0
  br i1 %.not, label %_ZNK9VectorSet4testEj.exit.thread, label %16

16:                                               ; preds = %13
  %17 = lshr i32 %.08, 5
  %.not.i = icmp ult i32 %17, %10
  br i1 %.not.i, label %_ZNK9VectorSet4testEj.exit, label %_ZNK9VectorSet4testEj.exit.thread

_ZNK9VectorSet4testEj.exit:                       ; preds = %16
  %18 = and i32 %.08, 31
  %19 = shl nuw i32 1, %18
  %20 = zext nneg i32 %17 to i64
  %21 = getelementptr inbounds i32, ptr %12, i64 %20
  %22 = load i32, ptr %21, align 4
  %23 = and i32 %22, %19
  %.not7 = icmp eq i32 %23, 0
  br i1 %.not7, label %_ZNK9VectorSet4testEj.exit.thread, label %.loopexit

_ZNK9VectorSet4testEj.exit.thread:                ; preds = %16, %13, %_ZNK9VectorSet4testEj.exit
  %24 = add nuw nsw i32 %.08, 1
  %exitcond.not = icmp eq i32 %24, %7
  br i1 %exitcond.not, label %.loopexit, label %13, !llvm.loop !9

.loopexit:                                        ; preds = %_ZNK9VectorSet4testEj.exit, %_ZNK9VectorSet4testEj.exit.thread, %.preheader, %2
  %.05 = phi i1 [ true, %2 ], [ false, %.preheader ], [ true, %_ZNK9VectorSet4testEj.exit ], [ false, %_ZNK9VectorSet4testEj.exit.thread ]
  ret i1 %.05
}